target datalayout = "e-m:e-p270:32:32-p271:32:32-p272:64:64-i64:64-i128:128-f80:128-n8:16:32:64-S128"
target triple = "x86_64-unknown-linux-gnu"

%"class.icu_75::StringPiece" = type <{ ptr, i32, [4 x i8] }>

; Function Attrs: mustprogress nounwind uwtable
define linkonce_odr noundef i32 @_ZNK6icu_7511StringPiece6lengthEv(ptr noundef nonnull align 8 dereferenceable(12) %this) #0 comdat align 2 {
entry:
  %this.addr = alloca ptr, align 8
  store ptr %this, ptr %this.addr, align 8
  %this1 = load ptr, ptr %this.addr, align 8
  %length_ = getelementptr inbounds %"class.icu_75::StringPiece", ptr %this1, i32 0, i32 1
  %0 = load i32, ptr %length_, align 8
  ret i32 %0
}

; Function Attrs: mustprogress nounwind uwtable
define linkonce_odr noundef ptr @_ZNK6icu_7511StringPiece4dataEv(ptr noundef nonnull align 8 dereferenceable(12) %this) #0 comdat align 2 {
entry:
  %this.addr = alloca ptr, align 8
  store ptr %this, ptr %this.addr, align 8
  %this1 = load ptr, ptr %this.addr, align 8
  %ptr_ = getelementptr inbounds %"class.icu_75::StringPiece", ptr %this1, i32 0, i32 0
  %0 = load ptr, ptr %ptr_, align 8
  ret ptr %0
}

; Function Attrs: mustprogress nounwind uwtable
define internal noundef signext i8 @_ZL9U_FAILURE10UErrorCode(i32 noundef %code) #0 {
entry:
  %code.addr = alloca i32, align 4
  store i32 %code, ptr %code.addr, align 4
  %0 = load i32, ptr %code.addr, align 4
  %cmp = icmp sgt i32 %0, 0
  %conv = zext i1 %cmp to i8
  ret i8 %conv
}

; Function Attrs: mustprogress uwtable
define void @_ZNK6icu_7519FilteredNormalizer213normalizeUTF8EjNS_11StringPieceERNS_8ByteSinkEPNS_5EditsER10UErrorCode(ptr noundef nonnull align 8 dereferenceable(24) %this, i32 noundef %options, ptr %src.coerce0, i32 %src.coerce1, ptr noundef nonnull align 8 dereferenceable(8) %sink, ptr noundef %edits, ptr noundef nonnull align 4 dereferenceable(4) %errorCode) unnamed_addr #2 align 2 {
entry:
  %src = alloca %"class.icu_75::StringPiece", align 8
  %this.addr = alloca ptr, align 8
  %options.addr = alloca i32, align 4
  %sink.addr = alloca ptr, align 8
  %edits.addr = alloca ptr, align 8
  %errorCode.addr = alloca ptr, align 8
  %0 = getelementptr inbounds { ptr, i32 }, ptr %src, i32 0, i32 0
  store ptr %src.coerce0, ptr %0, align 8
  %1 = getelementptr inbounds { ptr, i32 }, ptr %src, i32 0, i32 1
  store i32 %src.coerce1, ptr %1, align 8
  store ptr %this, ptr %this.addr, align 8
  store i32 %options, ptr %options.addr, align 4
  store ptr %sink, ptr %sink.addr, align 8
  store ptr %edits, ptr %edits.addr, align 8
  store ptr %errorCode, ptr %errorCode.addr, align 8
  %this1 = load ptr, ptr %this.addr, align 8
  %2 = load ptr, ptr %errorCode.addr, align 8
  %3 = load i32, ptr %2, align 4
  %call = call noundef signext i8 @_ZL9U_FAILURE10UErrorCode(i32 noundef %3)
  %tobool = icmp ne i8 %call, 0
  br i1 %tobool, label %if.then, label %if.end

if.then:                                          ; preds = %entry
  br label %return

if.end:                                           ; preds = %entry
  %4 = load ptr, ptr %edits.addr, align 8
  %cmp = icmp ne ptr %4, null
  br i1 %cmp, label %land.lhs.true, label %if.end4

land.lhs.true:                                    ; preds = %if.end
  %5 = load i32, ptr %options.addr, align 4
  %and = and i32 %5, 8192
  %cmp2 = icmp eq i32 %and, 0
  br i1 %cmp2, label %if.then3, label %if.end4

if.then3:                                         ; preds = %land.lhs.true
  %6 = load ptr, ptr %edits.addr, align 8
  call void @_ZN6icu_755Edits5resetEv(ptr noundef nonnull align 8 dereferenceable(232) %6) #4
  br label %if.end4

if.end4:                                          ; preds = %if.then3, %land.lhs.true, %if.end
  %7 = load i32, ptr %options.addr, align 4
  %or = or i32 %7, 8192
  store i32 %or, ptr %options.addr, align 4
  %8 = load i32, ptr %options.addr, align 4
  %call5 = call noundef ptr @_ZNK6icu_7511StringPiece4dataEv(ptr noundef nonnull align 8 dereferenceable(12) %src)
  %call6 = call noundef i32 @_ZNK6icu_7511StringPiece6lengthEv(ptr noundef nonnull align 8 dereferenceable(12) %src)
  %9 = load ptr, ptr %sink.addr, align 8
  %10 = load ptr, ptr %edits.addr, align 8
  %11 = load ptr, ptr %errorCode.addr, align 8
  call void @_ZNK6icu_7519FilteredNormalizer213normalizeUTF8EjPKciRNS_8ByteSinkEPNS_5EditsE17USetSpanConditionR10UErrorCode(ptr noundef nonnull align 8 dereferenceable(24) %this1, i32 noundef %8, ptr noundef %call5, i32 noundef %call6, ptr noundef nonnull align 8 dereferenceable(8) %9, ptr noundef %10, i32 noundef 2, ptr noundef nonnull align 4 dereferenceable(4) %11)
  br label %return

return:                                           ; preds = %if.end4, %if.then
  ret void
}