; Function Attrs: mustprogress uwtable
define void @_ZNK6icu_7519FilteredNormalizer213normalizeUTF8EjNS_11StringPieceERNS_8ByteSinkEPNS_5EditsER10UErrorCode(ptr nocapture noundef nonnull readonly align 8 dereferenceable(24) %this, i32 noundef %options, ptr %src.coerce0, i32 %src.coerce1, ptr noundef nonnull align 8 dereferenceable(8) %sink, ptr noundef %edits, ptr noundef nonnull align 4 dereferenceable(4) %errorCode) unnamed_addr #2 align 2 {
entry:
  %0 = load i32, ptr %errorCode, align 4
  %cmp.i = icmp slt i32 %0, 1
  br i1 %cmp.i, label %if.end, label %return

if.end:                                           ; preds = %entry
  %cmp.not = icmp ne ptr %edits, null
  %and = and i32 %options, 8192
  %cmp2 = icmp eq i32 %and, 0
  %or.cond = and i1 %cmp2, %cmp.not
  br i1 %or.cond, label %if.then3, label %if.end4

if.then3:                                         ; preds = %if.end
  tail call void @_ZN6icu_755Edits5resetEv(ptr noundef nonnull align 8 dereferenceable(232) %edits) #5
  br label %if.end4

if.end4:                                          ; preds = %if.then3, %if.end
  %or = or i32 %options, 8192
  tail call void @_ZNK6icu_7519FilteredNormalizer213normalizeUTF8EjPKciRNS_8ByteSinkEPNS_5EditsE17USetSpanConditionR10UErrorCode(ptr noundef nonnull align 8 dereferenceable(24) %this, i32 noundef %or, ptr noundef %src.coerce0, i32 noundef %src.coerce1, ptr noundef nonnull align 8 dereferenceable(8) %sink, ptr noundef %edits, i32 noundef 2, ptr noundef nonnull align 4 dereferenceable(4) %errorCode)
  br label %return

return:                                           ; preds = %entry, %if.end4
  ret void
}